; Function Attrs: nounwind uwtable
define ptr @tls_get_compression(ptr noundef readonly captures(none) %0) #0 {
  %2 = getelementptr inbounds nuw i8, ptr %0, i64 4160
  %3 = load ptr, ptr %2, align 8, !tbaa !93
  %4 = icmp eq ptr %3, null
  br i1 %4, label %7, label %5

5:                                                ; preds = %1
  %6 = tail call ptr @COMP_CTX_get_method(ptr noundef nonnull %3) #13
  br label %7

7:                                                ; preds = %1, %5
  %8 = phi ptr [ %6, %5 ], [ null, %1 ]
  ret ptr %8
}